; Function Attrs: mustprogress nofree norecurse nosync nounwind willreturn memory(argmem: readwrite) uwtable
define void @llhttp_set_lenient_chunked_length(ptr noundef captures(none) %0, i32 noundef %1) local_unnamed_addr #6 {
  %.not = icmp eq i32 %1, 0
  %3 = getelementptr inbounds nuw i8, ptr %0, i64 78
  %4 = load i16, ptr %3, align 2, !tbaa !19
  %5 = and i16 %4, -3
  %masksel = select i1 %.not, i16 0, i16 2
  %.sink = or disjoint i16 %5, %masksel
  store i16 %.sink, ptr %3, align 2, !tbaa !19
  ret void
}